; Function Attrs: mustprogress noinline uwtable
define dso_local void @_ZN4Luau7CodeGen3A6418AssemblyBuilderA646extendEv(ptr noundef nonnull align 8 dereferenceable(176) %0) local_unnamed_addr #7 align 2 personality ptr @__gxx_personality_v0 {
  %2 = getelementptr inbounds nuw i8, ptr %0, i64 160
  %3 = load ptr, ptr %2, align 8, !tbaa !39
  %4 = getelementptr inbounds nuw i8, ptr %0, i64 24
  %5 = load ptr, ptr %4, align 8, !tbaa !38
  %6 = ptrtoint ptr %5 to i64
  %7 = getelementptr inbounds nuw i8, ptr %0, i64 32
  %8 = load ptr, ptr %7, align 8, !tbaa !37
  %9 = ptrtoint ptr %8 to i64
  %10 = sub i64 %9, %6
  %11 = ashr exact i64 %10, 2
  %12 = ashr exact i64 %10, 1
  %13 = icmp ugt i64 %12, %11
  br i1 %13, label %14, label %16

14:                                               ; preds = %1
  %15 = sub nuw nsw i64 %12, %11
  tail call void @_ZNSt6vectorIjSaIjEE17_M_default_appendEm(ptr noundef nonnull align 8 dereferenceable(24) %4, i64 noundef %15)
  %.pre = load ptr, ptr %4, align 8, !tbaa !38
  %.pre1 = load ptr, ptr %7, align 8, !tbaa !37
  %.pre2 = ptrtoint ptr %.pre to i64
  br label %_ZNSt6vectorIjSaIjEE6resizeEm.exit

16:                                               ; preds = %1
  %17 = icmp ult i64 %12, %11
  br i1 %17, label %18, label %_ZNSt6vectorIjSaIjEE6resizeEm.exit

18:                                               ; preds = %16
  %19 = getelementptr inbounds nuw i32, ptr %5, i64 %12
  %.not.i.i = icmp eq ptr %8, %19
  br i1 %.not.i.i, label %_ZNSt6vectorIjSaIjEE6resizeEm.exit, label %20

20:                                               ; preds = %18
  store ptr %19, ptr %7, align 8, !tbaa !37
  br label %_ZNSt6vectorIjSaIjEE6resizeEm.exit

_ZNSt6vectorIjSaIjEE6resizeEm.exit:               ; preds = %14, %16, %18, %20
  %.pre-phi = phi i64 [ %.pre2, %14 ], [ %6, %16 ], [ %6, %18 ], [ %6, %20 ]
  %21 = phi ptr [ %.pre1, %14 ], [ %8, %16 ], [ %8, %18 ], [ %19, %20 ]
  %22 = phi ptr [ %.pre, %14 ], [ %5, %16 ], [ %5, %18 ], [ %5, %20 ]
  %23 = ptrtoint ptr %3 to i64
  %24 = sub i64 %23, %6
  %25 = lshr exact i64 %24, 2
  %26 = and i64 %25, 4294967295
  %27 = getelementptr inbounds nuw i32, ptr %22, i64 %26
  store ptr %27, ptr %2, align 8, !tbaa !39
  %28 = ptrtoint ptr %21 to i64
  %29 = sub i64 %28, %.pre-phi
  %30 = getelementptr inbounds nuw i8, ptr %22, i64 %29
  %31 = getelementptr inbounds nuw i8, ptr %0, i64 168
  store ptr %30, ptr %31, align 8, !tbaa !40
  ret void
}